; Function Attrs: mustprogress nofree norecurse nosync nounwind willreturn memory(read, argmem: readwrite, inaccessiblemem: none) uwtable
define dso_local range(i32 0, 2) i32 @lua_isstring(ptr noundef captures(address) %0, i32 noundef %1) local_unnamed_addr #9 {
  %3 = icmp sgt i32 %1, 0
  br i1 %3, label %4, label %12

4:                                                ; preds = %2
  %5 = getelementptr inbounds nuw i8, ptr %0, i64 24
  %6 = load ptr, ptr %5, align 8, !tbaa !21
  %7 = zext nneg i32 %1 to i64
  %8 = getelementptr %struct.lua_TValue, ptr %6, i64 %7
  %9 = getelementptr i8, ptr %8, i64 -16
  %10 = getelementptr inbounds nuw i8, ptr %0, i64 16
  %11 = load ptr, ptr %10, align 8, !tbaa !4
  %.not28.i.i = icmp ult ptr %9, %11
  br i1 %.not28.i.i, label %index2adr.exit.i, label %lua_type.exit

12:                                               ; preds = %2
  %13 = icmp sgt i32 %1, -10000
  br i1 %13, label %14, label %19

14:                                               ; preds = %12
  %15 = getelementptr inbounds nuw i8, ptr %0, i64 16
  %16 = load ptr, ptr %15, align 8, !tbaa !4
  %17 = sext i32 %1 to i64
  %18 = getelementptr inbounds %struct.lua_TValue, ptr %16, i64 %17
  br label %index2adr.exit.i

19:                                               ; preds = %12
  switch i32 %1, label %36 [
    i32 -10000, label %20
    i32 -10001, label %24
    i32 -10002, label %34
  ]

20:                                               ; preds = %19
  %21 = getelementptr inbounds nuw i8, ptr %0, i64 32
  %22 = load ptr, ptr %21, align 8, !tbaa !29
  %23 = getelementptr inbounds nuw i8, ptr %22, i64 160
  br label %index2adr.exit.i

24:                                               ; preds = %19
  %25 = getelementptr inbounds nuw i8, ptr %0, i64 40
  %26 = load ptr, ptr %25, align 8, !tbaa !23
  %27 = getelementptr inbounds nuw i8, ptr %26, i64 8
  %28 = load ptr, ptr %27, align 8, !tbaa !41
  %29 = load ptr, ptr %28, align 8, !tbaa !19
  %30 = getelementptr inbounds nuw i8, ptr %0, i64 136
  %31 = getelementptr inbounds nuw i8, ptr %29, i64 24
  %32 = load ptr, ptr %31, align 8, !tbaa !19
  store ptr %32, ptr %30, align 8, !tbaa !19
  %33 = getelementptr inbounds nuw i8, ptr %0, i64 144
  store i32 5, ptr %33, align 8, !tbaa !20
  br label %index2adr.exit.i

34:                                               ; preds = %19
  %35 = getelementptr inbounds nuw i8, ptr %0, i64 120
  br label %index2adr.exit.i

36:                                               ; preds = %19
  %37 = getelementptr inbounds nuw i8, ptr %0, i64 40
  %38 = load ptr, ptr %37, align 8, !tbaa !23
  %39 = getelementptr inbounds nuw i8, ptr %38, i64 8
  %40 = load ptr, ptr %39, align 8, !tbaa !41
  %41 = load ptr, ptr %40, align 8, !tbaa !19
  %42 = sub nuw nsw i32 -10002, %1
  %43 = getelementptr inbounds nuw i8, ptr %41, i64 11
  %44 = load i8, ptr %43, align 1, !tbaa !19
  %45 = zext i8 %44 to i32
  %.not.i.i = icmp samesign ugt i32 %42, %45
  %46 = getelementptr inbounds nuw i8, ptr %41, i64 40
  %47 = sub nuw nsw i32 -10003, %1
  %48 = zext nneg i32 %47 to i64
  %49 = getelementptr inbounds nuw [1 x %struct.lua_TValue], ptr %46, i64 0, i64 %48
  br i1 %.not.i.i, label %lua_type.exit, label %index2adr.exit.i

index2adr.exit.i:                                 ; preds = %36, %34, %24, %20, %14, %4
  %.1.i.i = phi ptr [ %18, %14 ], [ %49, %36 ], [ %35, %34 ], [ %30, %24 ], [ %23, %20 ], [ %9, %4 ]
  %50 = icmp eq ptr %.1.i.i, @luaO_nilobject_
  br i1 %50, label %lua_type.exit, label %51

51:                                               ; preds = %index2adr.exit.i
  %52 = getelementptr inbounds nuw i8, ptr %.1.i.i, i64 8
  %53 = load i32, ptr %52, align 8, !tbaa !20
  %54 = add i32 %53, -3
  %55 = icmp ult i32 %54, 2
  %56 = zext i1 %55 to i32
  br label %lua_type.exit

lua_type.exit:                                    ; preds = %4, %36, %index2adr.exit.i, %51
  %57 = phi i32 [ %56, %51 ], [ 0, %index2adr.exit.i ], [ 0, %4 ], [ 0, %36 ]
  ret i32 %57
}